target datalayout = "e-m:e-p270:32:32-p271:32:32-p272:64:64-i64:64-i128:128-f80:128-n8:16:32:64-S128"
target triple = "x86_64-pc-linux-gnu"

%class.LogTagSet = type { ptr, i64, [5 x i32], [4 x i8], %class.LogOutputList, %class.LogDecorators, ptr }
%class.LogOutputList = type <{ [6 x ptr], i32, [4 x i8] }>
%class.LogDecorators = type { i32 }
%class.GCLogPreciousHandle = type { %class.LogTargetHandle }
%class.LogTargetHandle = type { i32, ptr }
%class.XErrno = type { i32 }
%class.LogTargetImpl = type { i8 }

@.str = private unnamed_addr constant [36 x i8] c"%*u %*u %*u:%*u %*s %ms %*[^-]- %ms\00", align 1
@.str.4 = private unnamed_addr constant [21 x i8] c"/proc/self/mountinfo\00", align 1
@.str.5 = private unnamed_addr constant [2 x i8] c"r\00", align 1
@.str.6 = private unnamed_addr constant [22 x i8] c"Failed to open %s: %s\00", align 1
@_ZN16LogTagSetMappingILN6LogTag4typeE49ELS1_0ELS1_0ELS1_0ELS1_0ELS1_0EE7_tagsetE = linkonce_odr hidden global %class.LogTagSet zeroinitializer, comdat, align 8

; Function Attrs: mustprogress nounwind uwtable
define linkonce_odr hidden noundef nonnull align 8 dereferenceable(112) ptr @_ZN16LogTagSetMappingILN6LogTag4typeE49ELS1_0ELS1_0ELS1_0ELS1_0ELS1_0EE6tagsetEv() #1 comdat align 2 {
  ret ptr @_ZN16LogTagSetMappingILN6LogTag4typeE49ELS1_0ELS1_0ELS1_0ELS1_0ELS1_0EE7_tagsetE
}

; Function Attrs: mustprogress nounwind uwtable
define linkonce_odr hidden void @_ZN15LogTargetHandleC2ILN8LogLevel4typeE5ELN6LogTag4typeE49ELS4_0ELS4_0ELS4_0ELS4_0ELS4_0EEERK13LogTargetImplIXT_EXT0_EXT1_EXT2_EXT3_EXT4_EXT5_EE(ptr noundef nonnull align 8 dereferenceable(16) %0, ptr noundef nonnull align 1 dereferenceable(1) %1) unnamed_addr #1 comdat align 2 {
  %3 = alloca ptr, align 8
  %4 = alloca ptr, align 8
  store ptr %0, ptr %3, align 8
  store ptr %1, ptr %4, align 8
  %5 = load ptr, ptr %3, align 8
  %6 = getelementptr inbounds %class.LogTargetHandle, ptr %5, i32 0, i32 0
  store i32 5, ptr %6, align 8
  %7 = getelementptr inbounds %class.LogTargetHandle, ptr %5, i32 0, i32 1
  %8 = call noundef nonnull align 8 dereferenceable(112) ptr @_ZN16LogTagSetMappingILN6LogTag4typeE49ELS1_0ELS1_0ELS1_0ELS1_0ELS1_0EE6tagsetEv()
  store ptr %8, ptr %7, align 8
  ret void
}

; Function Attrs: mustprogress nounwind uwtable
define linkonce_odr hidden void @_ZN13LogTargetImplILN8LogLevel4typeE5ELN6LogTag4typeE49ELS3_0ELS3_0ELS3_0ELS3_0ELS3_0EEC2Ev(ptr noundef nonnull align 1 dereferenceable(1) %0) unnamed_addr #1 comdat align 2 {
  %2 = alloca ptr, align 8
  store ptr %0, ptr %2, align 8
  ret void
}

; Function Attrs: mustprogress nounwind uwtable
define hidden noundef ptr @_ZNK11XMountPoint14get_mountpointEPKcS1_(ptr noundef nonnull align 8 dereferenceable(8) %0, ptr noundef %1, ptr noundef %2) #1 align 2 {
  %4 = alloca ptr, align 8
  %5 = alloca ptr, align 8
  %6 = alloca ptr, align 8
  %7 = alloca ptr, align 8
  %8 = alloca ptr, align 8
  store ptr %0, ptr %4, align 8
  store ptr %1, ptr %5, align 8
  store ptr %2, ptr %6, align 8
  store ptr null, ptr %7, align 8
  store ptr null, ptr %8, align 8
  %9 = load ptr, ptr %5, align 8
  %10 = call i32 (ptr, ptr, ...) @__isoc99_sscanf(ptr noundef %9, ptr noundef @.str, ptr noundef %7, ptr noundef %8) #8
  %11 = icmp ne i32 %10, 2
  br i1 %11, label %21, label %12

12:                                               ; preds = %3
  %13 = load ptr, ptr %8, align 8
  %14 = load ptr, ptr %6, align 8
  %15 = call i32 @strcmp(ptr noundef %13, ptr noundef %14) #9
  %16 = icmp ne i32 %15, 0
  br i1 %16, label %21, label %17

17:                                               ; preds = %12
  %18 = load ptr, ptr %7, align 8
  %19 = call i32 @access(ptr noundef %18, i32 noundef 7) #8
  %20 = icmp ne i32 %19, 0
  br i1 %20, label %21, label %23

21:                                               ; preds = %17, %12, %3
  %22 = load ptr, ptr %7, align 8
  call void @free(ptr noundef %22) #8
  store ptr null, ptr %7, align 8
  br label %23

23:                                               ; preds = %21, %17
  %24 = load ptr, ptr %8, align 8
  call void @free(ptr noundef %24) #8
  %25 = load ptr, ptr %7, align 8
  ret ptr %25
}

; Function Attrs: mustprogress nounwind uwtable
define linkonce_odr hidden void @_ZN19GCLogPreciousHandleC2E15LogTargetHandle(ptr noundef nonnull align 8 dereferenceable(16) %0, i32 %1, ptr %2) unnamed_addr #1 comdat align 2 {
  %4 = alloca %class.LogTargetHandle, align 8
  %5 = alloca ptr, align 8
  %6 = getelementptr inbounds { i32, ptr }, ptr %4, i32 0, i32 0
  store i32 %1, ptr %6, align 8
  %7 = getelementptr inbounds { i32, ptr }, ptr %4, i32 0, i32 1
  store ptr %2, ptr %7, align 8
  store ptr %0, ptr %5, align 8
  %8 = load ptr, ptr %5, align 8
  %9 = getelementptr inbounds %class.GCLogPreciousHandle, ptr %8, i32 0, i32 0
  call void @llvm.memcpy.p0.p0.i64(ptr align 8 %9, ptr align 8 %4, i64 16, i1 false)
  ret void
}

; Function Attrs: mustprogress nounwind uwtable
define linkonce_odr hidden { i32, ptr } @_ZN15LogTargetHandle6createILN8LogLevel4typeE5ELN6LogTag4typeE49ELS4_0ELS4_0ELS4_0ELS4_0ELS4_0EEES_v() #1 comdat align 2 {
  %1 = alloca %class.LogTargetHandle, align 8
  %2 = alloca %class.LogTargetImpl, align 1
  call void @_ZN13LogTargetImplILN8LogLevel4typeE5ELN6LogTag4typeE49ELS3_0ELS3_0ELS3_0ELS3_0ELS3_0EEC2Ev(ptr noundef nonnull align 1 dereferenceable(1) %2)
  call void @_ZN15LogTargetHandleC2ILN8LogLevel4typeE5ELN6LogTag4typeE49ELS4_0ELS4_0ELS4_0ELS4_0ELS4_0EEERK13LogTargetImplIXT_EXT0_EXT1_EXT2_EXT3_EXT4_EXT5_EE(ptr noundef nonnull align 8 dereferenceable(16) %1, ptr noundef nonnull align 1 dereferenceable(1) %2)
  %3 = load { i32, ptr }, ptr %1, align 8
  ret { i32, ptr } %3
}

; Function Attrs: mustprogress nounwind uwtable
define hidden void @_ZNK11XMountPoint15get_mountpointsEPKcP18GrowableArrayCHeapIPcL8MEMFLAGS5EE(ptr noundef nonnull align 8 dereferenceable(8) %0, ptr noundef %1, ptr noundef %2) #1 align 2 {
  %4 = alloca ptr, align 8
  %5 = alloca ptr, align 8
  %6 = alloca ptr, align 8
  %7 = alloca ptr, align 8
  %8 = alloca %class.XErrno, align 4
  %9 = alloca %class.GCLogPreciousHandle, align 8
  %10 = alloca %class.LogTargetHandle, align 8
  %11 = alloca ptr, align 8
  %12 = alloca i64, align 8
  %13 = alloca ptr, align 8
  store ptr %0, ptr %4, align 8
  store ptr %1, ptr %5, align 8
  store ptr %2, ptr %6, align 8
  %14 = load ptr, ptr %4, align 8
  %15 = call noundef ptr @_ZN2os5fopenEPKcS1_(ptr noundef @.str.4, ptr noundef @.str.5)
  store ptr %15, ptr %7, align 8
  %16 = load ptr, ptr %7, align 8
  %17 = icmp eq ptr %16, null
  br i1 %17, label %18, label %29

18:                                               ; preds = %3
  call void @_ZN6XErrnoC1Ev(ptr noundef nonnull align 4 dereferenceable(4) %8)
  %19 = call { i32, ptr } @_ZN15LogTargetHandle6createILN8LogLevel4typeE5ELN6LogTag4typeE49ELS4_0ELS4_0ELS4_0ELS4_0ELS4_0EEES_v()
  %20 = getelementptr inbounds { i32, ptr }, ptr %10, i32 0, i32 0
  %21 = extractvalue { i32, ptr } %19, 0
  store i32 %21, ptr %20, align 8
  %22 = getelementptr inbounds { i32, ptr }, ptr %10, i32 0, i32 1
  %23 = extractvalue { i32, ptr } %19, 1
  store ptr %23, ptr %22, align 8
  %24 = getelementptr inbounds { i32, ptr }, ptr %10, i32 0, i32 0
  %25 = load i32, ptr %24, align 8
  %26 = getelementptr inbounds { i32, ptr }, ptr %10, i32 0, i32 1
  %27 = load ptr, ptr %26, align 8
  call void @_ZN19GCLogPreciousHandleC2E15LogTargetHandle(ptr noundef nonnull align 8 dereferenceable(16) %9, i32 %25, ptr %27)
  %28 = call noundef ptr @_ZNK6XErrno9to_stringEv(ptr noundef nonnull align 4 dereferenceable(4) %8)
  call void (ptr, ptr, ...) @_ZN19GCLogPreciousHandle5writeEPKcz(ptr noundef nonnull align 8 dereferenceable(16) %9, ptr noundef @.str.6, ptr noundef @.str.4, ptr noundef %28)
  br label %48

29:                                               ; preds = %3
  store ptr null, ptr %11, align 8
  store i64 0, ptr %12, align 8
  br label %30

30:                                               ; preds = %43, %29
  %31 = load ptr, ptr %7, align 8
  %32 = call i64 @getline(ptr noundef %11, ptr noundef %12, ptr noundef %31)
  %33 = icmp ne i64 %32, -1
  br i1 %33, label %34, label %44

34:                                               ; preds = %30
  %35 = load ptr, ptr %11, align 8
  %36 = load ptr, ptr %5, align 8
  %37 = call noundef ptr @_ZNK11XMountPoint14get_mountpointEPKcS1_(ptr noundef nonnull align 8 dereferenceable(8) %14, ptr noundef %35, ptr noundef %36)
  store ptr %37, ptr %13, align 8
  %38 = load ptr, ptr %13, align 8
  %39 = icmp ne ptr %38, null
  br i1 %39, label %40, label %43

40:                                               ; preds = %34
  %41 = load ptr, ptr %6, align 8
  %42 = call noundef i32 @_ZN26GrowableArrayWithAllocatorIPc18GrowableArrayCHeapIS0_L8MEMFLAGS5EEE6appendERKS0_(ptr noundef nonnull align 8 dereferenceable(16) %41, ptr noundef nonnull align 8 dereferenceable(8) %13)
  br label %43

43:                                               ; preds = %40, %34
  br label %30, !llvm.loop !6

44:                                               ; preds = %30
  %45 = load ptr, ptr %11, align 8
  call void @free(ptr noundef %45) #8
  %46 = load ptr, ptr %7, align 8
  %47 = call i32 @fclose(ptr noundef %46)
  br label %48

48:                                               ; preds = %44, %18
  ret void
}