; Function Attrs: mustprogress nounwind uwtable
define hidden void @_ZNK11XMountPoint15get_mountpointsEPKcP18GrowableArrayCHeapIPcL8MEMFLAGS5EE(ptr nocapture nonnull readnone align 8 %0, ptr nocapture noundef readonly %1, ptr noundef %2) local_unnamed_addr #0 align 2 {
  %4 = alloca ptr, align 8
  %5 = alloca ptr, align 8
  %6 = alloca %class.XErrno, align 4
  %7 = alloca %class.GCLogPreciousHandle, align 8
  %8 = alloca ptr, align 8
  %9 = alloca i64, align 8
  %10 = alloca ptr, align 8
  %11 = tail call noundef ptr @_ZN2os5fopenEPKcS1_(ptr noundef nonnull @.str.4, ptr noundef nonnull @.str.5) #11
  %12 = icmp eq ptr %11, null
  br i1 %12, label %13, label %15

13:                                               ; preds = %3
  call void @_ZN6XErrnoC1Ev(ptr noundef nonnull align 4 dereferenceable(4) %6) #11
  store i32 5, ptr %7, align 8
  %.sroa.21.0..sroa_idx.i = getelementptr inbounds i8, ptr %7, i64 8
  store ptr @_ZN16LogTagSetMappingILN6LogTag4typeE49ELS1_0ELS1_0ELS1_0ELS1_0ELS1_0EE7_tagsetE, ptr %.sroa.21.0..sroa_idx.i, align 8
  %14 = call noundef ptr @_ZNK6XErrno9to_stringEv(ptr noundef nonnull align 4 dereferenceable(4) %6) #11
  call void (ptr, ptr, ...) @_ZN19GCLogPreciousHandle5writeEPKcz(ptr noundef nonnull align 8 dereferenceable(16) %7, ptr noundef nonnull @.str.6, ptr noundef nonnull @.str.4, ptr noundef %14)
  br label %35

15:                                               ; preds = %3
  store ptr null, ptr %8, align 8
  store i64 0, ptr %9, align 8
  %16 = call i64 @getline(ptr noundef nonnull %8, ptr noundef nonnull %9, ptr noundef nonnull %11) #11
  %.not7 = icmp eq i64 %16, -1
  br i1 %.not7, label %._crit_edge, label %.lr.ph

.lr.ph:                                           ; preds = %15, %31
  %17 = load ptr, ptr %8, align 8
  call void @llvm.lifetime.start.p0(i64 8, ptr nonnull %4)
  call void @llvm.lifetime.start.p0(i64 8, ptr nonnull %5)
  store ptr null, ptr %4, align 8
  store ptr null, ptr %5, align 8
  %18 = call i32 (ptr, ptr, ...) @__isoc99_sscanf(ptr noundef readonly %17, ptr noundef nonnull @.str, ptr noundef nonnull %4, ptr noundef nonnull %5) #11
  %.not.i = icmp eq i32 %18, 2
  br i1 %.not.i, label %19, label %25

19:                                               ; preds = %.lr.ph
  %20 = load ptr, ptr %5, align 8
  %21 = call i32 @strcmp(ptr noundef nonnull dereferenceable(1) %20, ptr noundef nonnull readonly dereferenceable(1) %1) #12
  %.not2.i = icmp eq i32 %21, 0
  br i1 %.not2.i, label %22, label %25

22:                                               ; preds = %19
  %23 = load ptr, ptr %4, align 8
  %24 = call i32 @access(ptr noundef %23, i32 noundef 7) #11
  %.not3.i = icmp eq i32 %24, 0
  br i1 %.not3.i, label %_ZNK11XMountPoint14get_mountpointEPKcS1_.exit, label %25

25:                                               ; preds = %22, %19, %.lr.ph
  %26 = load ptr, ptr %4, align 8
  call void @free(ptr noundef %26) #11
  store ptr null, ptr %4, align 8
  br label %_ZNK11XMountPoint14get_mountpointEPKcS1_.exit

_ZNK11XMountPoint14get_mountpointEPKcS1_.exit:    ; preds = %22, %25
  %27 = load ptr, ptr %5, align 8
  call void @free(ptr noundef %27) #11
  %28 = load ptr, ptr %4, align 8
  call void @llvm.lifetime.end.p0(i64 8, ptr nonnull %4)
  call void @llvm.lifetime.end.p0(i64 8, ptr nonnull %5)
  store ptr %28, ptr %10, align 8
  %.not6 = icmp eq ptr %28, null
  br i1 %.not6, label %31, label %29

29:                                               ; preds = %_ZNK11XMountPoint14get_mountpointEPKcS1_.exit
  %30 = call noundef i32 @_ZN26GrowableArrayWithAllocatorIPc18GrowableArrayCHeapIS0_L8MEMFLAGS5EEE6appendERKS0_(ptr noundef nonnull align 8 dereferenceable(16) %2, ptr noundef nonnull align 8 dereferenceable(8) %10)
  br label %31

31:                                               ; preds = %29, %_ZNK11XMountPoint14get_mountpointEPKcS1_.exit
  %32 = call i64 @getline(ptr noundef nonnull %8, ptr noundef nonnull %9, ptr noundef nonnull %11) #11
  %.not = icmp eq i64 %32, -1
  br i1 %.not, label %._crit_edge, label %.lr.ph, !llvm.loop !11

._crit_edge:                                      ; preds = %31, %15
  %33 = load ptr, ptr %8, align 8
  call void @free(ptr noundef %33) #11
  %34 = call i32 @fclose(ptr noundef nonnull %11)
  br label %35

35:                                               ; preds = %._crit_edge, %13
  ret void
}